target datalayout = "e-m:e-p270:32:32-p271:32:32-p272:64:64-i64:64-i128:128-f80:128-n8:16:32:64-S128"
target triple = "x86_64-pc-linux-gnu"

%struct.expert_field = type { i32, i32 }

@hf_a11_aut_flow_prof_sub_type = internal global i32 0, align 4
@hf_a11_aut_flow_prof_sub_type_len = internal global i32 0, align 4
@hf_a11_aut_flow_prof_sub_type_value = internal global i32 0, align 4
@ett_a11_aut_flow_profile_ids = internal global i32 0, align 4
@ei_a11_sub_type_length_not2 = internal global %struct.expert_field zeroinitializer, align 4
@.str.455 = private unnamed_addr constant [1 x i8] zeroinitializer, align 1
@.str.456 = private unnamed_addr constant [8 x i8] c"%s = %u\00", align 1
@.str.457 = private unnamed_addr constant [8 x i8] c"Unknown\00", align 1

; Function Attrs: null_pointer_is_valid sspstrong uwtable
define internal ptr @dissect_3gpp2_radius_aut_flow_profile_ids(ptr noundef %0, ptr noundef %1, ptr noundef %2) #0 {
  %4 = alloca ptr, align 8
  %5 = alloca ptr, align 8
  %6 = alloca ptr, align 8
  %7 = alloca ptr, align 8
  %8 = alloca i32, align 4
  %9 = alloca ptr, align 8
  %10 = alloca i8, align 1
  %11 = alloca i8, align 1
  %12 = alloca i32, align 4
  store ptr %0, ptr %4, align 8
  store ptr %1, ptr %5, align 8
  store ptr %2, ptr %6, align 8
  call void @llvm.lifetime.start.p0(i64 8, ptr %7) #5
  call void @llvm.lifetime.start.p0(i64 4, ptr %8) #5
  store i32 0, ptr %8, align 4
  call void @llvm.lifetime.start.p0(i64 8, ptr %9) #5
  call void @llvm.lifetime.start.p0(i64 1, ptr %10) #5
  call void @llvm.lifetime.start.p0(i64 1, ptr %11) #5
  call void @llvm.lifetime.start.p0(i64 4, ptr %12) #5
  br label %13

13:                                               ; preds = %61, %3
  %14 = load ptr, ptr %5, align 8
  %15 = load i32, ptr %8, align 4
  %16 = call i32 @tvb_reported_length_remaining(ptr noundef %14, i32 noundef %15)
  %17 = icmp sgt i32 %16, 0
  br i1 %17, label %18, label %74

18:                                               ; preds = %13
  %19 = load ptr, ptr %5, align 8
  %20 = load i32, ptr %8, align 4
  %21 = call zeroext i8 @tvb_get_uint8(ptr noundef %19, i32 noundef %20)
  store i8 %21, ptr %10, align 1
  %22 = load ptr, ptr %5, align 8
  %23 = load i32, ptr %8, align 4
  %24 = add i32 %23, 1
  %25 = call zeroext i8 @tvb_get_uint8(ptr noundef %22, i32 noundef %24)
  store i8 %25, ptr %11, align 1
  %26 = load ptr, ptr %5, align 8
  %27 = load i32, ptr %8, align 4
  %28 = add i32 %27, 2
  %29 = call zeroext i16 @tvb_get_ntohs(ptr noundef %26, i32 noundef %28)
  %30 = zext i16 %29 to i32
  store i32 %30, ptr %12, align 4
  %31 = load ptr, ptr %4, align 8
  %32 = load ptr, ptr %5, align 8
  %33 = load i32, ptr %8, align 4
  %34 = load i8, ptr %11, align 1
  %35 = zext i8 %34 to i32
  %36 = load i32, ptr @ett_a11_aut_flow_profile_ids, align 4
  %37 = load i8, ptr %10, align 1
  %38 = zext i8 %37 to i32
  %39 = call ptr @val_to_str_const(i32 noundef %38, ptr noundef @a11_aut_flow_prof_subtype_vals, ptr noundef @.str.457)
  %40 = load i32, ptr %12, align 4
  %41 = call ptr (ptr, ptr, i32, i32, i32, ptr, ptr, ...) @proto_tree_add_subtree_format(ptr noundef %31, ptr noundef %32, i32 noundef %33, i32 noundef %35, i32 noundef %36, ptr noundef %9, ptr noundef @.str.456, ptr noundef %39, i32 noundef %40)
  store ptr %41, ptr %7, align 8
  %42 = load ptr, ptr %7, align 8
  %43 = load i32, ptr @hf_a11_aut_flow_prof_sub_type, align 4
  %44 = load ptr, ptr %5, align 8
  %45 = load i32, ptr %8, align 4
  %46 = call ptr @proto_tree_add_item(ptr noundef %42, i32 noundef %43, ptr noundef %44, i32 noundef %45, i32 noundef 1, i32 noundef 0)
  %47 = load i32, ptr %8, align 4
  %48 = add i32 %47, 1
  store i32 %48, ptr %8, align 4
  %49 = load ptr, ptr %7, align 8
  %50 = load i32, ptr @hf_a11_aut_flow_prof_sub_type_len, align 4
  %51 = load ptr, ptr %5, align 8
  %52 = load i32, ptr %8, align 4
  %53 = call ptr @proto_tree_add_item(ptr noundef %49, i32 noundef %50, ptr noundef %51, i32 noundef %52, i32 noundef 1, i32 noundef 0)
  store ptr %53, ptr %9, align 8
  %54 = load i8, ptr %11, align 1
  %55 = zext i8 %54 to i32
  %56 = icmp slt i32 %55, 2
  br i1 %56, label %57, label %61

57:                                               ; preds = %18
  %58 = load ptr, ptr %6, align 8
  %59 = load ptr, ptr %9, align 8
  %60 = call ptr @expert_add_info(ptr noundef %58, ptr noundef %59, ptr noundef @ei_a11_sub_type_length_not2)
  store i8 2, ptr %11, align 1
  br label %61

61:                                               ; preds = %57, %18
  %62 = load i32, ptr %8, align 4
  %63 = add i32 %62, 1
  store i32 %63, ptr %8, align 4
  %64 = load ptr, ptr %7, align 8
  %65 = load i32, ptr @hf_a11_aut_flow_prof_sub_type_value, align 4
  %66 = load ptr, ptr %5, align 8
  %67 = load i32, ptr %8, align 4
  %68 = call ptr @proto_tree_add_item(ptr noundef %64, i32 noundef %65, ptr noundef %66, i32 noundef %67, i32 noundef 2, i32 noundef 0)
  %69 = load i32, ptr %8, align 4
  %70 = load i8, ptr %11, align 1
  %71 = zext i8 %70 to i32
  %72 = add i32 %69, %71
  %73 = sub i32 %72, 2
  store i32 %73, ptr %8, align 4
  br label %13, !llvm.loop !8

74:                                               ; preds = %13
  call void @llvm.lifetime.end.p0(i64 4, ptr %12) #5
  call void @llvm.lifetime.end.p0(i64 1, ptr %11) #5
  call void @llvm.lifetime.end.p0(i64 1, ptr %10) #5
  call void @llvm.lifetime.end.p0(i64 8, ptr %9) #5
  call void @llvm.lifetime.end.p0(i64 4, ptr %8) #5
  call void @llvm.lifetime.end.p0(i64 8, ptr %7) #5
  ret ptr @.str.455
}