; Function Attrs: null_pointer_is_valid sspstrong uwtable
define internal noundef nonnull ptr @dissect_3gpp2_radius_aut_flow_profile_ids(ptr noundef %0, ptr noundef %1, ptr noundef %2) #0 {
  %4 = alloca ptr, align 8
  call void @llvm.lifetime.start.p0(i64 8, ptr nonnull %4) #7
  %5 = tail call i32 @tvb_reported_length_remaining(ptr noundef %1, i32 noundef 0)
  %6 = icmp sgt i32 %5, 0
  br i1 %6, label %.lr.ph, label %._crit_edge

.lr.ph:                                           ; preds = %3, %25
  %.029 = phi i32 [ %29, %25 ], [ 0, %3 ]
  %7 = call zeroext i8 @tvb_get_uint8(ptr noundef %1, i32 noundef %.029)
  %8 = add i32 %.029, 1
  %9 = call zeroext i8 @tvb_get_uint8(ptr noundef %1, i32 noundef %8)
  %10 = add i32 %.029, 2
  %11 = call zeroext i16 @tvb_get_ntohs(ptr noundef %1, i32 noundef %10)
  %12 = zext i16 %11 to i32
  %13 = zext i8 %9 to i32
  %14 = load i32, ptr @ett_a11_aut_flow_profile_ids, align 4
  %15 = zext i8 %7 to i32
  %16 = call ptr @val_to_str_const(i32 noundef %15, ptr noundef nonnull @a11_aut_flow_prof_subtype_vals, ptr noundef nonnull @.str.457)
  %17 = call ptr (ptr, ptr, i32, i32, i32, ptr, ptr, ...) @proto_tree_add_subtree_format(ptr noundef %0, ptr noundef %1, i32 noundef %.029, i32 noundef %13, i32 noundef %14, ptr noundef nonnull %4, ptr noundef nonnull @.str.456, ptr noundef %16, i32 noundef %12)
  %18 = load i32, ptr @hf_a11_aut_flow_prof_sub_type, align 4
  %19 = call ptr @proto_tree_add_item(ptr noundef %17, i32 noundef %18, ptr noundef %1, i32 noundef %.029, i32 noundef 1, i32 noundef 0)
  %20 = load i32, ptr @hf_a11_aut_flow_prof_sub_type_len, align 4
  %21 = call ptr @proto_tree_add_item(ptr noundef %17, i32 noundef %20, ptr noundef %1, i32 noundef %8, i32 noundef 1, i32 noundef 0)
  store ptr %21, ptr %4, align 8
  %22 = icmp ult i8 %9, 2
  br i1 %22, label %23, label %25

23:                                               ; preds = %.lr.ph
  %24 = call ptr @expert_add_info(ptr noundef %2, ptr noundef %21, ptr noundef nonnull @ei_a11_sub_type_length_not2)
  br label %25

25:                                               ; preds = %23, %.lr.ph
  %.028 = phi i8 [ 2, %23 ], [ %9, %.lr.ph ]
  %26 = load i32, ptr @hf_a11_aut_flow_prof_sub_type_value, align 4
  %27 = call ptr @proto_tree_add_item(ptr noundef %17, i32 noundef %26, ptr noundef %1, i32 noundef %10, i32 noundef 2, i32 noundef 0)
  %28 = zext i8 %.028 to i32
  %29 = add i32 %.029, %28
  %30 = call i32 @tvb_reported_length_remaining(ptr noundef %1, i32 noundef %29)
  %31 = icmp sgt i32 %30, 0
  br i1 %31, label %.lr.ph, label %._crit_edge, !llvm.loop !18

._crit_edge:                                      ; preds = %25, %3
  call void @llvm.lifetime.end.p0(i64 8, ptr nonnull %4) #7
  ret ptr @.str.455
}